target datalayout = "e-m:e-p270:32:32-p271:32:32-p272:64:64-i64:64-i128:128-f80:128-n8:16:32:64-S128"
target triple = "x86_64-pc-linux-gnu"

%"class.Ipopt::SymTMatrix" = type <{ %"class.Ipopt::SymMatrix", ptr, ptr, i8, [7 x i8] }>
%"class.Ipopt::SymMatrix" = type { %"class.Ipopt::Matrix.base", ptr }
%"class.Ipopt::Matrix.base" = type <{ %"class.Ipopt::TaggedObject", %"class.Ipopt::SmartPtr", i32, i8 }>
%"class.Ipopt::TaggedObject" = type { %"class.Ipopt::ReferencedObject.base", %"class.Ipopt::Subject", i32, i32 }
%"class.Ipopt::ReferencedObject.base" = type <{ ptr, i32 }>
%"class.Ipopt::Subject" = type { ptr, %"class.std::vector" }
%"class.std::vector" = type { %"struct.std::_Vector_base" }
%"struct.std::_Vector_base" = type { %"struct.std::_Vector_base<Ipopt::Observer *, std::allocator<Ipopt::Observer *>>::_Vector_impl" }
%"struct.std::_Vector_base<Ipopt::Observer *, std::allocator<Ipopt::Observer *>>::_Vector_impl" = type { %"struct.std::_Vector_base<Ipopt::Observer *, std::allocator<Ipopt::Observer *>>::_Vector_impl_data" }
%"struct.std::_Vector_base<Ipopt::Observer *, std::allocator<Ipopt::Observer *>>::_Vector_impl_data" = type { ptr, ptr, ptr }
%"class.Ipopt::SmartPtr" = type { ptr }
%"class.Ipopt::DenseVector" = type { %"class.Ipopt::Vector.base", ptr, ptr, ptr, i8, i8, double }
%"class.Ipopt::Vector.base" = type <{ %"class.Ipopt::TaggedObject", %"class.Ipopt::SmartPtr.0", %"class.Ipopt::CachedResults", i32, [4 x i8], double, i32, [4 x i8], double, i32, [4 x i8], double, i32, [4 x i8], double, i32, [4 x i8], double, i32, [4 x i8], double, i32, [4 x i8], double, i32, i8 }>
%"class.Ipopt::SmartPtr.0" = type { ptr }
%"class.Ipopt::CachedResults" = type { ptr, i32, ptr }
%"class.Ipopt::Matrix" = type <{ %"class.Ipopt::TaggedObject", %"class.Ipopt::SmartPtr", i32, i8, [3 x i8] }>
%"class.Ipopt::SymTMatrixSpace" = type { %"class.Ipopt::SymMatrixSpace.base", i32, ptr, ptr }
%"class.Ipopt::SymMatrixSpace.base" = type { %"class.Ipopt::MatrixSpace.base" }
%"class.Ipopt::MatrixSpace.base" = type { %"class.Ipopt::ReferencedObject.base", i32, i32 }
%"class.Ipopt::VectorSpace" = type { %"class.Ipopt::ReferencedObject.base", i32 }
%"class.Ipopt::MatrixSpace" = type { %"class.Ipopt::ReferencedObject.base", i32, i32, [4 x i8] }

; Function Attrs: mustprogress nounwind uwtable
define linkonce_odr noundef i32 @_ZNK5Ipopt11VectorSpace3DimEv(ptr noundef nonnull align 8 dereferenceable(16) %0) #2 comdat align 2 {
  %2 = alloca ptr, align 8
  store ptr %0, ptr %2, align 8, !tbaa !156
  %3 = load ptr, ptr %2, align 8
  %4 = getelementptr inbounds nuw %"class.Ipopt::VectorSpace", ptr %3, i32 0, i32 1
  %5 = load i32, ptr %4, align 4, !tbaa !157
  ret i32 %5
}

; Function Attrs: inlinehint mustprogress uwtable
define linkonce_odr noundef ptr @_ZNK5Ipopt16DenseVectorSpace23AllocateInternalStorageEv(ptr noundef nonnull align 8 dereferenceable(160) %0) #1 comdat align 2 {
  %2 = alloca ptr, align 8
  %3 = alloca ptr, align 8
  store ptr %0, ptr %3, align 8, !tbaa !155
  %4 = load ptr, ptr %3, align 8
  %5 = call noundef i32 @_ZNK5Ipopt11VectorSpace3DimEv(ptr noundef nonnull align 8 dereferenceable(16) %4)
  %6 = icmp sgt i32 %5, 0
  br i1 %6, label %7, label %15

7:                                                ; preds = %1
  %8 = call noundef i32 @_ZNK5Ipopt11VectorSpace3DimEv(ptr noundef nonnull align 8 dereferenceable(16) %4)
  %9 = sext i32 %8 to i64
  %10 = call { i64, i1 } @llvm.umul.with.overflow.i64(i64 %9, i64 8)
  %11 = extractvalue { i64, i1 } %10, 1
  %12 = extractvalue { i64, i1 } %10, 0
  %13 = select i1 %11, i64 -1, i64 %12
  %14 = call noalias noundef nonnull ptr @_Znam(i64 noundef %13) #14
  store ptr %14, ptr %2, align 8
  br label %16

15:                                               ; preds = %1
  store ptr null, ptr %2, align 8
  br label %16

16:                                               ; preds = %15, %7
  %17 = load ptr, ptr %2, align 8
  ret ptr %17
}

; Function Attrs: inlinehint mustprogress nounwind uwtable
define linkonce_odr noundef nonnull align 8 dereferenceable(8) ptr @_ZSt3maxIdERKT_S2_S2_(ptr noundef nonnull align 8 dereferenceable(8) %0, ptr noundef nonnull align 8 dereferenceable(8) %1) #9 comdat {
  %3 = alloca ptr, align 8
  %4 = alloca ptr, align 8
  %5 = alloca ptr, align 8
  store ptr %0, ptr %4, align 8, !tbaa !37
  store ptr %1, ptr %5, align 8, !tbaa !37
  %6 = load ptr, ptr %4, align 8, !tbaa !37
  %7 = load double, ptr %6, align 8, !tbaa !38
  %8 = load ptr, ptr %5, align 8, !tbaa !37
  %9 = load double, ptr %8, align 8, !tbaa !38
  %10 = fcmp olt double %7, %9
  br i1 %10, label %11, label %13

11:                                               ; preds = %2
  %12 = load ptr, ptr %5, align 8, !tbaa !37
  store ptr %12, ptr %3, align 8
  br label %15

13:                                               ; preds = %2
  %14 = load ptr, ptr %4, align 8, !tbaa !37
  store ptr %14, ptr %3, align 8
  br label %15

15:                                               ; preds = %13, %11
  %16 = load ptr, ptr %3, align 8
  ret ptr %16
}

; Function Attrs: mustprogress nounwind uwtable
define linkonce_odr noundef i32 @_ZNK5Ipopt15SymTMatrixSpace8NonzerosEv(ptr noundef nonnull align 8 dereferenceable(40) %0) #2 comdat align 2 {
  %2 = alloca ptr, align 8
  store ptr %0, ptr %2, align 8, !tbaa !8
  %3 = load ptr, ptr %2, align 8
  %4 = getelementptr inbounds nuw %"class.Ipopt::SymTMatrixSpace", ptr %3, i32 0, i32 1
  %5 = load i32, ptr %4, align 4, !tbaa !77
  ret i32 %5
}

; Function Attrs: inlinehint mustprogress uwtable
define linkonce_odr noundef ptr @_ZN5Ipopt11DenseVector16values_allocatedEv(ptr noundef nonnull align 8 dereferenceable(248) %0) #1 comdat align 2 {
  %2 = alloca ptr, align 8
  store ptr %0, ptr %2, align 8, !tbaa !42
  %3 = load ptr, ptr %2, align 8
  %4 = getelementptr inbounds nuw %"class.Ipopt::DenseVector", ptr %3, i32 0, i32 2
  %5 = load ptr, ptr %4, align 8, !tbaa !61
  %6 = icmp eq ptr %5, null
  br i1 %6, label %7, label %12

7:                                                ; preds = %1
  %8 = getelementptr inbounds nuw %"class.Ipopt::DenseVector", ptr %3, i32 0, i32 1
  %9 = load ptr, ptr %8, align 8, !tbaa !154
  %10 = call noundef ptr @_ZNK5Ipopt16DenseVectorSpace23AllocateInternalStorageEv(ptr noundef nonnull align 8 dereferenceable(160) %9)
  %11 = getelementptr inbounds nuw %"class.Ipopt::DenseVector", ptr %3, i32 0, i32 2
  store ptr %10, ptr %11, align 8, !tbaa !61
  br label %12

12:                                               ; preds = %7, %1
  %13 = getelementptr inbounds nuw %"class.Ipopt::DenseVector", ptr %3, i32 0, i32 2
  %14 = load ptr, ptr %13, align 8, !tbaa !61
  ret ptr %14
}

; Function Attrs: mustprogress nounwind uwtable
define linkonce_odr noundef ptr @_ZNK5Ipopt15SymTMatrixSpace5JcolsEv(ptr noundef nonnull align 8 dereferenceable(40) %0) #2 comdat align 2 {
  %2 = alloca ptr, align 8
  store ptr %0, ptr %2, align 8, !tbaa !8
  %3 = load ptr, ptr %2, align 8
  %4 = getelementptr inbounds nuw %"class.Ipopt::SymTMatrixSpace", ptr %3, i32 0, i32 3
  %5 = load ptr, ptr %4, align 8, !tbaa !82
  ret ptr %5
}

; Function Attrs: mustprogress nounwind uwtable
define linkonce_odr noundef ptr @_ZNK5Ipopt15SymTMatrixSpace5IrowsEv(ptr noundef nonnull align 8 dereferenceable(40) %0) #2 comdat align 2 {
  %2 = alloca ptr, align 8
  store ptr %0, ptr %2, align 8, !tbaa !8
  %3 = load ptr, ptr %2, align 8
  %4 = getelementptr inbounds nuw %"class.Ipopt::SymTMatrixSpace", ptr %3, i32 0, i32 2
  %5 = load ptr, ptr %4, align 8, !tbaa !81
  ret ptr %5
}

; Function Attrs: mustprogress nounwind uwtable
define linkonce_odr noundef i32 @_ZNK5Ipopt11MatrixSpace5NRowsEv(ptr noundef nonnull align 8 dereferenceable(20) %0) #2 comdat align 2 {
  %2 = alloca ptr, align 8
  store ptr %0, ptr %2, align 8, !tbaa !84
  %3 = load ptr, ptr %2, align 8
  %4 = getelementptr inbounds nuw %"class.Ipopt::MatrixSpace", ptr %3, i32 0, i32 1
  %5 = load i32, ptr %4, align 4, !tbaa !159
  ret i32 %5
}

; Function Attrs: mustprogress nounwind uwtable
define linkonce_odr noundef ptr @_ZNK5Ipopt8SmartPtrIKNS_11MatrixSpaceEEptEv(ptr noundef nonnull align 8 dereferenceable(8) %0) #2 comdat align 2 {
  %2 = alloca ptr, align 8
  store ptr %0, ptr %2, align 8, !tbaa !88
  %3 = load ptr, ptr %2, align 8
  %4 = getelementptr inbounds nuw %"class.Ipopt::SmartPtr", ptr %3, i32 0, i32 0
  %5 = load ptr, ptr %4, align 8, !tbaa !90
  ret ptr %5
}

; Function Attrs: inlinehint mustprogress uwtable
define linkonce_odr noundef double @_ZN5Ipopt3MaxIdEET_S1_S1_(double noundef %0, double noundef %1) #1 comdat {
  %3 = alloca double, align 8
  %4 = alloca double, align 8
  store double %0, ptr %3, align 8, !tbaa !38
  store double %1, ptr %4, align 8, !tbaa !38
  %5 = call noundef nonnull align 8 dereferenceable(8) ptr @_ZSt3maxIdERKT_S2_S2_(ptr noundef nonnull align 8 dereferenceable(8) %3, ptr noundef nonnull align 8 dereferenceable(8) %4)
  %6 = load double, ptr %5, align 8, !tbaa !38
  ret double %6
}

; Function Attrs: inlinehint mustprogress nounwind uwtable
define linkonce_odr noundef double @_ZSt3absd(double noundef %0) #9 comdat {
  %2 = alloca double, align 8
  store double %0, ptr %2, align 8, !tbaa !38
  %3 = load double, ptr %2, align 8, !tbaa !38
  %4 = call double @llvm.fabs.f64(double %3)
  ret double %4
}

; Function Attrs: inlinehint mustprogress uwtable
define linkonce_odr noundef i32 @_ZNK5Ipopt10SymTMatrix8NonzerosEv(ptr noundef nonnull align 8 dereferenceable(97) %0) #1 comdat align 2 {
  %2 = alloca ptr, align 8
  store ptr %0, ptr %2, align 8, !tbaa !3
  %3 = load ptr, ptr %2, align 8
  %4 = getelementptr inbounds nuw %"class.Ipopt::SymTMatrix", ptr %3, i32 0, i32 1
  %5 = load ptr, ptr %4, align 8, !tbaa !12
  %6 = call noundef i32 @_ZNK5Ipopt15SymTMatrixSpace8NonzerosEv(ptr noundef nonnull align 8 dereferenceable(40) %5)
  ret i32 %6
}

; Function Attrs: inlinehint mustprogress uwtable
define linkonce_odr noundef ptr @_ZN5Ipopt11DenseVector6ValuesEv(ptr noundef nonnull align 8 dereferenceable(248) %0) #1 comdat align 2 {
  %2 = alloca ptr, align 8
  store ptr %0, ptr %2, align 8, !tbaa !42
  %3 = load ptr, ptr %2, align 8
  %4 = getelementptr inbounds nuw %"class.Ipopt::DenseVector", ptr %3, i32 0, i32 4
  %5 = load i8, ptr %4, align 8, !tbaa !50, !range !58, !noundef !59
  %6 = trunc i8 %5 to i1
  br i1 %6, label %7, label %12

7:                                                ; preds = %1
  %8 = getelementptr inbounds nuw %"class.Ipopt::DenseVector", ptr %3, i32 0, i32 5
  %9 = load i8, ptr %8, align 1, !tbaa !60, !range !58, !noundef !59
  %10 = trunc i8 %9 to i1
  br i1 %10, label %11, label %12

11:                                               ; preds = %7
  call void @_ZN5Ipopt11DenseVector22set_values_from_scalarEv(ptr noundef nonnull align 8 dereferenceable(248) %3)
  br label %12

12:                                               ; preds = %11, %7, %1
  call void @_ZN5Ipopt12TaggedObject13ObjectChangedEv(ptr noundef nonnull align 8 dereferenceable(56) %3)
  %13 = getelementptr inbounds nuw %"class.Ipopt::DenseVector", ptr %3, i32 0, i32 4
  store i8 1, ptr %13, align 8, !tbaa !50
  %14 = getelementptr inbounds nuw %"class.Ipopt::DenseVector", ptr %3, i32 0, i32 5
  store i8 0, ptr %14, align 1, !tbaa !60
  %15 = call noundef ptr @_ZN5Ipopt11DenseVector16values_allocatedEv(ptr noundef nonnull align 8 dereferenceable(248) %3)
  %16 = getelementptr inbounds nuw %"class.Ipopt::DenseVector", ptr %3, i32 0, i32 2
  %17 = load ptr, ptr %16, align 8, !tbaa !61
  ret ptr %17
}

; Function Attrs: inlinehint mustprogress uwtable
define linkonce_odr noundef ptr @_ZNK5Ipopt10SymTMatrix5JcolsEv(ptr noundef nonnull align 8 dereferenceable(97) %0) #1 comdat align 2 {
  %2 = alloca ptr, align 8
  store ptr %0, ptr %2, align 8, !tbaa !3
  %3 = load ptr, ptr %2, align 8
  %4 = getelementptr inbounds nuw %"class.Ipopt::SymTMatrix", ptr %3, i32 0, i32 1
  %5 = load ptr, ptr %4, align 8, !tbaa !12
  %6 = call noundef ptr @_ZNK5Ipopt15SymTMatrixSpace5JcolsEv(ptr noundef nonnull align 8 dereferenceable(40) %5)
  ret ptr %6
}

; Function Attrs: inlinehint mustprogress uwtable
define linkonce_odr noundef ptr @_ZNK5Ipopt10SymTMatrix5IrowsEv(ptr noundef nonnull align 8 dereferenceable(97) %0) #1 comdat align 2 {
  %2 = alloca ptr, align 8
  store ptr %0, ptr %2, align 8, !tbaa !3
  %3 = load ptr, ptr %2, align 8
  %4 = getelementptr inbounds nuw %"class.Ipopt::SymTMatrix", ptr %3, i32 0, i32 1
  %5 = load ptr, ptr %4, align 8, !tbaa !12
  %6 = call noundef ptr @_ZNK5Ipopt15SymTMatrixSpace5IrowsEv(ptr noundef nonnull align 8 dereferenceable(40) %5)
  ret ptr %6
}

; Function Attrs: inlinehint mustprogress uwtable
define linkonce_odr noundef i32 @_ZNK5Ipopt6Matrix5NRowsEv(ptr noundef nonnull align 8 dereferenceable(69) %0) #1 comdat align 2 {
  %2 = alloca ptr, align 8
  store ptr %0, ptr %2, align 8, !tbaa !66
  %3 = load ptr, ptr %2, align 8
  %4 = getelementptr inbounds nuw %"class.Ipopt::Matrix", ptr %3, i32 0, i32 1
  %5 = call noundef ptr @_ZNK5Ipopt8SmartPtrIKNS_11MatrixSpaceEEptEv(ptr noundef nonnull align 8 dereferenceable(8) %4)
  %6 = call noundef i32 @_ZNK5Ipopt11MatrixSpace5NRowsEv(ptr noundef nonnull align 8 dereferenceable(20) %5)
  ret i32 %6
}

; Function Attrs: mustprogress uwtable
define void @_ZNK5Ipopt10SymTMatrix18ComputeRowAMaxImplERNS_6VectorEb(ptr noundef nonnull align 8 dereferenceable(97) %0, ptr noundef nonnull align 8 dereferenceable(205) %1, i1 noundef zeroext %2) unnamed_addr #0 align 2 {
  %4 = alloca ptr, align 8
  %5 = alloca ptr, align 8
  %6 = alloca i8, align 1
  %7 = alloca ptr, align 8
  %8 = alloca ptr, align 8
  %9 = alloca ptr, align 8
  %10 = alloca ptr, align 8
  %11 = alloca ptr, align 8
  %12 = alloca double, align 8
  %13 = alloca i32, align 4
  %14 = alloca double, align 8
  store ptr %0, ptr %4, align 8, !tbaa !3
  store ptr %1, ptr %5, align 8, !tbaa !40
  %15 = zext i1 %2 to i8
  store i8 %15, ptr %6, align 1, !tbaa !64
  %16 = load ptr, ptr %4, align 8
  %17 = call noundef i32 @_ZNK5Ipopt6Matrix5NRowsEv(ptr noundef nonnull align 8 dereferenceable(69) %16)
  %18 = icmp eq i32 %17, 0
  br i1 %18, label %19, label %20

19:                                               ; preds = %3
  br label %77

20:                                               ; preds = %3
  call void @llvm.lifetime.start.p0(i64 8, ptr %7) #13
  %21 = load ptr, ptr %5, align 8, !tbaa !40
  store ptr %21, ptr %7, align 8, !tbaa !42
  call void @llvm.lifetime.start.p0(i64 8, ptr %8) #13
  %22 = call noundef ptr @_ZNK5Ipopt10SymTMatrix5IrowsEv(ptr noundef nonnull align 8 dereferenceable(97) %16)
  store ptr %22, ptr %8, align 8, !tbaa !44
  call void @llvm.lifetime.start.p0(i64 8, ptr %9) #13
  %23 = call noundef ptr @_ZNK5Ipopt10SymTMatrix5JcolsEv(ptr noundef nonnull align 8 dereferenceable(97) %16)
  store ptr %23, ptr %9, align 8, !tbaa !44
  call void @llvm.lifetime.start.p0(i64 8, ptr %10) #13
  %24 = getelementptr inbounds nuw %"class.Ipopt::SymTMatrix", ptr %16, i32 0, i32 2
  %25 = load ptr, ptr %24, align 8, !tbaa !31
  store ptr %25, ptr %10, align 8, !tbaa !37
  call void @llvm.lifetime.start.p0(i64 8, ptr %11) #13
  %26 = load ptr, ptr %7, align 8, !tbaa !42
  %27 = call noundef ptr @_ZN5Ipopt11DenseVector6ValuesEv(ptr noundef nonnull align 8 dereferenceable(248) %26)
  store ptr %27, ptr %11, align 8, !tbaa !37
  call void @llvm.lifetime.start.p0(i64 8, ptr %12) #13
  store double 0.000000e+00, ptr %12, align 8, !tbaa !38
  %28 = call noundef i32 @_ZNK5Ipopt6Matrix5NRowsEv(ptr noundef nonnull align 8 dereferenceable(69) %16)
  %29 = load ptr, ptr %11, align 8, !tbaa !37
  call void @_ZN5Ipopt10IpBlasCopyEiPKdiPdi(i32 noundef %28, ptr noundef %12, i32 noundef 0, ptr noundef %29, i32 noundef 1)
  %30 = load ptr, ptr %11, align 8, !tbaa !37
  %31 = getelementptr inbounds double, ptr %30, i32 -1
  store ptr %31, ptr %11, align 8, !tbaa !37
  call void @llvm.lifetime.start.p0(i64 4, ptr %13) #13
  store i32 0, ptr %13, align 4, !tbaa !46
  br label %32

32:                                               ; preds = %73, %20
  %33 = load i32, ptr %13, align 4, !tbaa !46
  %34 = call noundef i32 @_ZNK5Ipopt10SymTMatrix8NonzerosEv(ptr noundef nonnull align 8 dereferenceable(97) %16)
  %35 = icmp slt i32 %33, %34
  br i1 %35, label %37, label %36

36:                                               ; preds = %32
  call void @llvm.lifetime.end.p0(i64 4, ptr %13) #13
  br label %76

37:                                               ; preds = %32
  call void @llvm.lifetime.start.p0(i64 8, ptr %14) #13
  %38 = load ptr, ptr %10, align 8, !tbaa !37
  %39 = load double, ptr %38, align 8, !tbaa !38
  %40 = call noundef double @_ZSt3absd(double noundef %39)
  store double %40, ptr %14, align 8, !tbaa !38
  %41 = load ptr, ptr %11, align 8, !tbaa !37
  %42 = load ptr, ptr %8, align 8, !tbaa !44
  %43 = load i32, ptr %42, align 4, !tbaa !46
  %44 = sext i32 %43 to i64
  %45 = getelementptr inbounds double, ptr %41, i64 %44
  %46 = load double, ptr %45, align 8, !tbaa !38
  %47 = load double, ptr %14, align 8, !tbaa !38
  %48 = call noundef double @_ZN5Ipopt3MaxIdEET_S1_S1_(double noundef %46, double noundef %47)
  %49 = load ptr, ptr %11, align 8, !tbaa !37
  %50 = load ptr, ptr %8, align 8, !tbaa !44
  %51 = load i32, ptr %50, align 4, !tbaa !46
  %52 = sext i32 %51 to i64
  %53 = getelementptr inbounds double, ptr %49, i64 %52
  store double %48, ptr %53, align 8, !tbaa !38
  %54 = load ptr, ptr %11, align 8, !tbaa !37
  %55 = load ptr, ptr %9, align 8, !tbaa !44
  %56 = load i32, ptr %55, align 4, !tbaa !46
  %57 = sext i32 %56 to i64
  %58 = getelementptr inbounds double, ptr %54, i64 %57
  %59 = load double, ptr %58, align 8, !tbaa !38
  %60 = load double, ptr %14, align 8, !tbaa !38
  %61 = call noundef double @_ZN5Ipopt3MaxIdEET_S1_S1_(double noundef %59, double noundef %60)
  %62 = load ptr, ptr %11, align 8, !tbaa !37
  %63 = load ptr, ptr %9, align 8, !tbaa !44
  %64 = load i32, ptr %63, align 4, !tbaa !46
  %65 = sext i32 %64 to i64
  %66 = getelementptr inbounds double, ptr %62, i64 %65
  store double %61, ptr %66, align 8, !tbaa !38
  %67 = load ptr, ptr %10, align 8, !tbaa !37
  %68 = getelementptr inbounds nuw double, ptr %67, i32 1
  store ptr %68, ptr %10, align 8, !tbaa !37
  %69 = load ptr, ptr %8, align 8, !tbaa !44
  %70 = getelementptr inbounds nuw i32, ptr %69, i32 1
  store ptr %70, ptr %8, align 8, !tbaa !44
  %71 = load ptr, ptr %9, align 8, !tbaa !44
  %72 = getelementptr inbounds nuw i32, ptr %71, i32 1
  store ptr %72, ptr %9, align 8, !tbaa !44
  call void @llvm.lifetime.end.p0(i64 8, ptr %14) #13
  br label %73

73:                                               ; preds = %37
  %74 = load i32, ptr %13, align 4, !tbaa !46
  %75 = add nsw i32 %74, 1
  store i32 %75, ptr %13, align 4, !tbaa !46
  br label %32, !llvm.loop !65

76:                                               ; preds = %36
  call void @llvm.lifetime.end.p0(i64 8, ptr %12) #13
  call void @llvm.lifetime.end.p0(i64 8, ptr %11) #13
  call void @llvm.lifetime.end.p0(i64 8, ptr %10) #13
  call void @llvm.lifetime.end.p0(i64 8, ptr %9) #13
  call void @llvm.lifetime.end.p0(i64 8, ptr %8) #13
  call void @llvm.lifetime.end.p0(i64 8, ptr %7) #13
  br label %77

77:                                               ; preds = %76, %19
  ret void
}