; Function Attrs: mustprogress uwtable
define void @_ZNK5Ipopt10SymTMatrix18ComputeRowAMaxImplERNS_6VectorEb(ptr noundef nonnull readonly align 8 captures(none) dereferenceable(97) %0, ptr noundef nonnull align 8 dereferenceable(205) %1, i1 zeroext %2) unnamed_addr #0 align 2 {
  %4 = alloca double, align 8
  %5 = getelementptr inbounds nuw i8, ptr %0, i64 56
  %6 = load ptr, ptr %5, align 8, !tbaa !10
  %7 = getelementptr inbounds nuw i8, ptr %6, i64 12
  %8 = load i32, ptr %7, align 4, !tbaa !64
  %9 = icmp eq i32 %8, 0
  br i1 %9, label %67, label %10

10:                                               ; preds = %3
  %11 = getelementptr inbounds nuw i8, ptr %0, i64 80
  %12 = load ptr, ptr %11, align 8, !tbaa !28
  %13 = getelementptr inbounds nuw i8, ptr %12, i64 24
  %14 = load ptr, ptr %13, align 8, !tbaa !39
  %15 = getelementptr inbounds nuw i8, ptr %12, i64 32
  %16 = load ptr, ptr %15, align 8, !tbaa !40
  %17 = getelementptr inbounds nuw i8, ptr %0, i64 88
  %18 = load ptr, ptr %17, align 8, !tbaa !32
  %19 = getelementptr inbounds nuw i8, ptr %1, i64 232
  %20 = load i8, ptr %19, align 8, !tbaa !41, !range !50, !noundef !51
  %21 = trunc nuw i8 %20 to i1
  br i1 %21, label %22, label %27

22:                                               ; preds = %10
  %23 = getelementptr inbounds nuw i8, ptr %1, i64 233
  %24 = load i8, ptr %23, align 1, !tbaa !52, !range !50, !noundef !51
  %25 = trunc nuw i8 %24 to i1
  br i1 %25, label %26, label %27

26:                                               ; preds = %22
  tail call void @_ZN5Ipopt11DenseVector22set_values_from_scalarEv(ptr noundef nonnull align 8 dereferenceable(248) %1)
  br label %27

27:                                               ; preds = %26, %22, %10
  tail call void @_ZN5Ipopt12TaggedObject13ObjectChangedEv(ptr noundef nonnull align 8 dereferenceable(248) %1)
  store i8 1, ptr %19, align 8, !tbaa !41
  %28 = getelementptr inbounds nuw i8, ptr %1, i64 233
  store i8 0, ptr %28, align 1, !tbaa !52
  %29 = getelementptr inbounds nuw i8, ptr %1, i64 216
  %30 = load ptr, ptr %29, align 8, !tbaa !53
  %31 = icmp eq ptr %30, null
  br i1 %31, label %32, label %_ZN5Ipopt11DenseVector6ValuesEv.exit

32:                                               ; preds = %27
  %33 = getelementptr inbounds nuw i8, ptr %1, i64 208
  %34 = load ptr, ptr %33, align 8, !tbaa !54
  %35 = getelementptr inbounds nuw i8, ptr %34, i64 12
  %36 = load i32, ptr %35, align 4, !tbaa !55
  %37 = icmp sgt i32 %36, 0
  br i1 %37, label %38, label %_ZNK5Ipopt16DenseVectorSpace23AllocateInternalStorageEv.exit.i.i

38:                                               ; preds = %32
  %39 = zext nneg i32 %36 to i64
  %40 = shl nuw nsw i64 %39, 3
  %41 = tail call noalias noundef nonnull ptr @_Znam(i64 noundef %40) #17
  br label %_ZNK5Ipopt16DenseVectorSpace23AllocateInternalStorageEv.exit.i.i

_ZNK5Ipopt16DenseVectorSpace23AllocateInternalStorageEv.exit.i.i: ; preds = %38, %32
  %.0.i.i.i = phi ptr [ %41, %38 ], [ null, %32 ]
  store ptr %.0.i.i.i, ptr %29, align 8, !tbaa !53
  br label %_ZN5Ipopt11DenseVector6ValuesEv.exit

_ZN5Ipopt11DenseVector6ValuesEv.exit:             ; preds = %27, %_ZNK5Ipopt16DenseVectorSpace23AllocateInternalStorageEv.exit.i.i
  %42 = phi ptr [ %30, %27 ], [ %.0.i.i.i, %_ZNK5Ipopt16DenseVectorSpace23AllocateInternalStorageEv.exit.i.i ]
  call void @llvm.lifetime.start.p0(i64 8, ptr nonnull %4) #16
  store double 0.000000e+00, ptr %4, align 8, !tbaa !58
  %43 = load ptr, ptr %5, align 8, !tbaa !10
  %44 = getelementptr inbounds nuw i8, ptr %43, i64 12
  %45 = load i32, ptr %44, align 4, !tbaa !64
  call void @_ZN5Ipopt10IpBlasCopyEiPKdiPdi(i32 noundef %45, ptr noundef nonnull %4, i32 noundef 0, ptr noundef %42, i32 noundef 1)
  %46 = getelementptr inbounds i8, ptr %42, i64 -8
  %47 = load ptr, ptr %11, align 8, !tbaa !28
  %48 = getelementptr inbounds nuw i8, ptr %47, i64 20
  %49 = load i32, ptr %48, align 4, !tbaa !34
  %50 = icmp sgt i32 %49, 0
  br i1 %50, label %.lr.ph, label %._crit_edge

._crit_edge:                                      ; preds = %.lr.ph, %_ZN5Ipopt11DenseVector6ValuesEv.exit
  call void @llvm.lifetime.end.p0(i64 8, ptr nonnull %4) #16
  br label %67

.lr.ph:                                           ; preds = %_ZN5Ipopt11DenseVector6ValuesEv.exit, %.lr.ph
  %.027 = phi ptr [ %64, %.lr.ph ], [ %14, %_ZN5Ipopt11DenseVector6ValuesEv.exit ]
  %.02026 = phi i32 [ %66, %.lr.ph ], [ 0, %_ZN5Ipopt11DenseVector6ValuesEv.exit ]
  %.02125 = phi ptr [ %63, %.lr.ph ], [ %18, %_ZN5Ipopt11DenseVector6ValuesEv.exit ]
  %.02224 = phi ptr [ %65, %.lr.ph ], [ %16, %_ZN5Ipopt11DenseVector6ValuesEv.exit ]
  %51 = load double, ptr %.02125, align 8, !tbaa !58
  %52 = call noundef double @llvm.fabs.f64(double %51)
  %53 = load i32, ptr %.027, align 4, !tbaa !59
  %54 = sext i32 %53 to i64
  %55 = getelementptr inbounds double, ptr %46, i64 %54
  %56 = load double, ptr %55, align 8, !tbaa !58
  %57 = fcmp olt double %56, %52
  %.sroa.speculated.i = select i1 %57, double %52, double %56
  store double %.sroa.speculated.i, ptr %55, align 8, !tbaa !58
  %58 = load i32, ptr %.02224, align 4, !tbaa !59
  %59 = sext i32 %58 to i64
  %60 = getelementptr inbounds double, ptr %46, i64 %59
  %61 = load double, ptr %60, align 8, !tbaa !58
  %62 = fcmp olt double %61, %52
  %.sroa.speculated.i23 = select i1 %62, double %52, double %61
  store double %.sroa.speculated.i23, ptr %60, align 8, !tbaa !58
  %63 = getelementptr inbounds nuw i8, ptr %.02125, i64 8
  %64 = getelementptr inbounds nuw i8, ptr %.027, i64 4
  %65 = getelementptr inbounds nuw i8, ptr %.02224, i64 4
  %66 = add nuw nsw i32 %.02026, 1
  %exitcond.not = icmp eq i32 %66, %49
  br i1 %exitcond.not, label %._crit_edge, label %.lr.ph, !llvm.loop !65

67:                                               ; preds = %3, %._crit_edge
  ret void
}